target datalayout = "e-m:e-p270:32:32-p271:32:32-p272:64:64-i64:64-i128:128-f80:128-n8:16:32:64-S128"
target triple = "x86_64-pc-linux-gnu"

%struct.CodedBitstreamFragment = type { ptr, i64, i64, ptr, i32, i32, ptr }
%struct.CodedBitstreamUnit = type { i32, ptr, i64, i64, ptr, ptr, ptr }

@.str.1 = private unnamed_addr constant [30 x i8] c"Assertion %s failed at %s:%d\0A\00", align 1
@.str.3 = private unnamed_addr constant [17 x i8] c"libavcodec/cbs.c\00", align 1
@.str.21 = private unnamed_addr constant [44 x i8] c"position >= 0 && position <= frag->nb_units\00", align 1

; Function Attrs: nounwind uwtable
define internal i32 @cbs_insert_unit_data(ptr noundef %0, i32 noundef %1, ptr noundef %2, i64 noundef %3, ptr noundef %4, i32 noundef %5) #3 {
  %7 = alloca i32, align 4
  %8 = alloca ptr, align 8
  %9 = alloca i32, align 4
  %10 = alloca ptr, align 8
  %11 = alloca i64, align 8
  %12 = alloca ptr, align 8
  %13 = alloca i32, align 4
  %14 = alloca ptr, align 8
  %15 = alloca ptr, align 8
  %16 = alloca i32, align 4
  %17 = alloca i32, align 4
  store ptr %0, ptr %8, align 8, !tbaa !39
  store i32 %1, ptr %9, align 4, !tbaa !10
  store ptr %2, ptr %10, align 8, !tbaa !66
  store i64 %3, ptr %11, align 8, !tbaa !67
  store ptr %4, ptr %12, align 8, !tbaa !65
  store i32 %5, ptr %13, align 4, !tbaa !10
  call void @llvm.lifetime.start.p0(i64 8, ptr %14) #13
  call void @llvm.lifetime.start.p0(i64 8, ptr %15) #13
  call void @llvm.lifetime.start.p0(i64 4, ptr %16) #13
  br label %18

18:                                               ; preds = %6
  %19 = load i32, ptr %13, align 4, !tbaa !10
  %20 = icmp sge i32 %19, 0
  br i1 %20, label %21, label %27

21:                                               ; preds = %18
  %22 = load i32, ptr %13, align 4, !tbaa !10
  %23 = load ptr, ptr %8, align 8, !tbaa !39
  %24 = getelementptr inbounds nuw %struct.CodedBitstreamFragment, ptr %23, i32 0, i32 4
  %25 = load i32, ptr %24, align 8, !tbaa !41
  %26 = icmp sle i32 %22, %25
  br i1 %26, label %28, label %27

27:                                               ; preds = %21, %18
  call void (ptr, i32, ptr, ...) @av_log(ptr noundef null, i32 noundef 0, ptr noundef @.str.1, ptr noundef @.str.21, ptr noundef @.str.3, i32 noundef 838)
  call void @abort() #14
  unreachable

28:                                               ; preds = %21
  br label %29

29:                                               ; preds = %28
  br label %30

30:                                               ; preds = %29
  %31 = load ptr, ptr %12, align 8, !tbaa !65
  %32 = icmp ne ptr %31, null
  br i1 %32, label %33, label %36

33:                                               ; preds = %30
  %34 = load ptr, ptr %12, align 8, !tbaa !65
  %35 = call ptr @av_buffer_ref(ptr noundef %34)
  store ptr %35, ptr %15, align 8, !tbaa !65
  br label %40

36:                                               ; preds = %30
  %37 = load ptr, ptr %10, align 8, !tbaa !66
  %38 = load i64, ptr %11, align 8, !tbaa !67
  %39 = call ptr @av_buffer_create(ptr noundef %37, i64 noundef %38, ptr noundef null, ptr noundef null, i32 noundef 0)
  store ptr %39, ptr %15, align 8, !tbaa !65
  br label %40

40:                                               ; preds = %36, %33
  %41 = load ptr, ptr %15, align 8, !tbaa !65
  %42 = icmp ne ptr %41, null
  br i1 %42, label %49, label %43

43:                                               ; preds = %40
  %44 = load ptr, ptr %12, align 8, !tbaa !65
  %45 = icmp ne ptr %44, null
  br i1 %45, label %48, label %46

46:                                               ; preds = %43
  %47 = load ptr, ptr %10, align 8, !tbaa !66
  call void @av_free(ptr noundef %47)
  br label %48

48:                                               ; preds = %46, %43
  store i32 -12, ptr %7, align 4
  store i32 1, ptr %17, align 4
  br label %76

49:                                               ; preds = %40
  %50 = load ptr, ptr %8, align 8, !tbaa !39
  %51 = load i32, ptr %13, align 4, !tbaa !10
  %52 = call i32 @cbs_insert_unit(ptr noundef %50, i32 noundef %51)
  store i32 %52, ptr %16, align 4, !tbaa !10
  %53 = load i32, ptr %16, align 4, !tbaa !10
  %54 = icmp slt i32 %53, 0
  br i1 %54, label %55, label %57

55:                                               ; preds = %49
  call void @av_buffer_unref(ptr noundef %15)
  %56 = load i32, ptr %16, align 4, !tbaa !10
  store i32 %56, ptr %7, align 4
  store i32 1, ptr %17, align 4
  br label %76

57:                                               ; preds = %49
  %58 = load ptr, ptr %8, align 8, !tbaa !39
  %59 = getelementptr inbounds nuw %struct.CodedBitstreamFragment, ptr %58, i32 0, i32 6
  %60 = load ptr, ptr %59, align 8, !tbaa !45
  %61 = load i32, ptr %13, align 4, !tbaa !10
  %62 = sext i32 %61 to i64
  %63 = getelementptr inbounds %struct.CodedBitstreamUnit, ptr %60, i64 %62
  store ptr %63, ptr %14, align 8, !tbaa !50
  %64 = load i32, ptr %9, align 4, !tbaa !10
  %65 = load ptr, ptr %14, align 8, !tbaa !50
  %66 = getelementptr inbounds nuw %struct.CodedBitstreamUnit, ptr %65, i32 0, i32 0
  store i32 %64, ptr %66, align 8, !tbaa !89
  %67 = load ptr, ptr %10, align 8, !tbaa !66
  %68 = load ptr, ptr %14, align 8, !tbaa !50
  %69 = getelementptr inbounds nuw %struct.CodedBitstreamUnit, ptr %68, i32 0, i32 1
  store ptr %67, ptr %69, align 8, !tbaa !53
  %70 = load i64, ptr %11, align 8, !tbaa !67
  %71 = load ptr, ptr %14, align 8, !tbaa !50
  %72 = getelementptr inbounds nuw %struct.CodedBitstreamUnit, ptr %71, i32 0, i32 2
  store i64 %70, ptr %72, align 8, !tbaa !54
  %73 = load ptr, ptr %15, align 8, !tbaa !65
  %74 = load ptr, ptr %14, align 8, !tbaa !50
  %75 = getelementptr inbounds nuw %struct.CodedBitstreamUnit, ptr %74, i32 0, i32 4
  store ptr %73, ptr %75, align 8, !tbaa !90
  store i32 0, ptr %7, align 4
  store i32 1, ptr %17, align 4
  br label %76

76:                                               ; preds = %57, %55, %48
  call void @llvm.lifetime.end.p0(i64 4, ptr %16) #13
  call void @llvm.lifetime.end.p0(i64 8, ptr %15) #13
  call void @llvm.lifetime.end.p0(i64 8, ptr %14) #13
  %77 = load i32, ptr %7, align 4
  ret i32 %77
}

; Function Attrs: nounwind uwtable
define i32 @ff_cbs_append_unit_data(ptr noundef %0, i32 noundef %1, ptr noundef %2, i64 noundef %3, ptr noundef %4) #3 {
  %6 = alloca ptr, align 8
  %7 = alloca i32, align 4
  %8 = alloca ptr, align 8
  %9 = alloca i64, align 8
  %10 = alloca ptr, align 8
  store ptr %0, ptr %6, align 8, !tbaa !39
  store i32 %1, ptr %7, align 4, !tbaa !10
  store ptr %2, ptr %8, align 8, !tbaa !66
  store i64 %3, ptr %9, align 8, !tbaa !67
  store ptr %4, ptr %10, align 8, !tbaa !65
  %11 = load ptr, ptr %6, align 8, !tbaa !39
  %12 = load i32, ptr %7, align 4, !tbaa !10
  %13 = load ptr, ptr %8, align 8, !tbaa !66
  %14 = load i64, ptr %9, align 8, !tbaa !67
  %15 = load ptr, ptr %10, align 8, !tbaa !65
  %16 = load ptr, ptr %6, align 8, !tbaa !39
  %17 = getelementptr inbounds nuw %struct.CodedBitstreamFragment, ptr %16, i32 0, i32 4
  %18 = load i32, ptr %17, align 8, !tbaa !41
  %19 = call i32 @cbs_insert_unit_data(ptr noundef %11, i32 noundef %12, ptr noundef %13, i64 noundef %14, ptr noundef %15, i32 noundef %18)
  ret i32 %19
}