; Function Attrs: nounwind uwtable
define range(i32 -12, 1) i32 @ff_cbs_append_unit_data(ptr noundef captures(none) %0, i32 noundef %1, ptr noundef %2, i64 noundef %3, ptr noundef %4) local_unnamed_addr #3 {
  %6 = alloca ptr, align 8
  %7 = getelementptr inbounds nuw i8, ptr %0, i64 32
  %8 = load i32, ptr %7, align 8, !tbaa !34
  call void @llvm.lifetime.start.p0(i64 8, ptr nonnull %6) #10
  %9 = icmp sgt i32 %8, -1
  br i1 %9, label %11, label %10

10:                                               ; preds = %5
  tail call void (ptr, i32, ptr, ...) @av_log(ptr noundef null, i32 noundef 0, ptr noundef nonnull @.str.1, ptr noundef nonnull @.str.21, ptr noundef nonnull @.str.3, i32 noundef 838) #10
  tail call void @abort() #11
  unreachable

11:                                               ; preds = %5
  %.not25.i = icmp eq ptr %4, null
  br i1 %.not25.i, label %12, label %.thread.i

12:                                               ; preds = %11
  %13 = tail call ptr @av_buffer_create(ptr noundef %2, i64 noundef %3, ptr noundef null, ptr noundef null, i32 noundef 0) #10
  store ptr %13, ptr %6, align 8, !tbaa !110
  %.not26.i = icmp eq ptr %13, null
  br i1 %.not26.i, label %15, label %16

.thread.i:                                        ; preds = %11
  %14 = tail call ptr @av_buffer_ref(ptr noundef nonnull %4) #10
  store ptr %14, ptr %6, align 8, !tbaa !110
  %.not2628.i = icmp eq ptr %14, null
  br i1 %.not2628.i, label %cbs_insert_unit_data.exit, label %16

15:                                               ; preds = %12
  tail call void @av_free(ptr noundef %2) #10
  br label %cbs_insert_unit_data.exit

16:                                               ; preds = %.thread.i, %12
  %17 = phi ptr [ %14, %.thread.i ], [ %13, %12 ]
  %18 = tail call fastcc i32 @cbs_insert_unit(ptr noundef nonnull %0, i32 noundef %8)
  %19 = icmp slt i32 %18, 0
  br i1 %19, label %20, label %21

20:                                               ; preds = %16
  call void @av_buffer_unref(ptr noundef nonnull %6) #10
  br label %cbs_insert_unit_data.exit

21:                                               ; preds = %16
  %22 = getelementptr inbounds nuw i8, ptr %0, i64 40
  %23 = load ptr, ptr %22, align 8, !tbaa !38
  %24 = zext nneg i32 %8 to i64
  %25 = getelementptr inbounds nuw %struct.CodedBitstreamUnit, ptr %23, i64 %24
  store i32 %1, ptr %25, align 8, !tbaa !57
  %26 = getelementptr inbounds nuw i8, ptr %25, i64 8
  store ptr %2, ptr %26, align 8, !tbaa !60
  %27 = getelementptr inbounds nuw i8, ptr %25, i64 16
  store i64 %3, ptr %27, align 8, !tbaa !93
  %28 = getelementptr inbounds nuw i8, ptr %25, i64 32
  store ptr %17, ptr %28, align 8, !tbaa !61
  br label %cbs_insert_unit_data.exit

cbs_insert_unit_data.exit:                        ; preds = %.thread.i, %15, %20, %21
  %.0.i = phi i32 [ %18, %20 ], [ 0, %21 ], [ -12, %15 ], [ -12, %.thread.i ]
  call void @llvm.lifetime.end.p0(i64 8, ptr nonnull %6) #10
  ret i32 %.0.i
}